target datalayout = "e-m:e-p270:32:32-p271:32:32-p272:64:64-i64:64-i128:128-f80:128-n8:16:32:64-S128"
target triple = "x86_64-pc-linux-gnu"

%struct.stat = type { i64, i64, i64, i32, i32, i32, i32, i64, i64, i64, i64, %struct.timespec, %struct.timespec, %struct.timespec, [3 x i64] }
%struct.timespec = type { i64, i64 }
%struct.JsonManifestParseContext = type { ptr, ptr, ptr, ptr, ptr, ptr }
%struct.manifest_data = type { i64, ptr, ptr, ptr }

@.str.1 = private unnamed_addr constant [19 x i8] c"%s/backup_manifest\00", align 1
@.str.2 = private unnamed_addr constant [25 x i8] c"file \22%s\22 does not exist\00", align 1
@.str.3 = private unnamed_addr constant [29 x i8] c"could not open file \22%s\22: %m\00", align 1
@.str.4 = private unnamed_addr constant [29 x i8] c"could not stat file \22%s\22: %m\00", align 1
@.str.5 = private unnamed_addr constant [29 x i8] c"could not read file \22%s\22: %m\00", align 1
@.str.6 = private unnamed_addr constant [42 x i8] c"could not read file \22%s\22: read %d of %lld\00", align 1
@.str.7 = private unnamed_addr constant [44 x i8] c"could not read file \22%s\22: read %lld of %lld\00", align 1

; Function Attrs: nounwind uwtable
define dso_local ptr @load_backup_manifest(ptr noundef %0) #0 {
  %2 = alloca ptr, align 8
  %3 = alloca ptr, align 8
  %4 = alloca [1024 x i8], align 16
  %5 = alloca i32, align 4
  %6 = alloca %struct.stat, align 8
  %7 = alloca i64, align 8
  %8 = alloca i32, align 4
  %9 = alloca ptr, align 8
  %10 = alloca ptr, align 8
  %11 = alloca i32, align 4
  %12 = alloca %struct.JsonManifestParseContext, align 8
  %13 = alloca ptr, align 8
  %14 = alloca i32, align 4
  %15 = alloca i32, align 4
  %16 = alloca i32, align 4
  %17 = alloca ptr, align 8
  %18 = alloca i32, align 4
  store ptr %0, ptr %3, align 8
  call void @llvm.lifetime.start.p0(i64 1024, ptr %4) #14
  call void @llvm.lifetime.start.p0(i64 4, ptr %5) #14
  call void @llvm.lifetime.start.p0(i64 144, ptr %6) #14
  call void @llvm.lifetime.start.p0(i64 8, ptr %7) #14
  call void @llvm.lifetime.start.p0(i64 4, ptr %8) #14
  call void @llvm.lifetime.start.p0(i64 8, ptr %9) #14
  call void @llvm.lifetime.start.p0(i64 8, ptr %10) #14
  call void @llvm.lifetime.start.p0(i64 4, ptr %11) #14
  call void @llvm.lifetime.start.p0(i64 48, ptr %12) #14
  call void @llvm.lifetime.start.p0(i64 8, ptr %13) #14
  call void @llvm.lifetime.start.p0(i64 4, ptr %14) #14
  store i32 131072, ptr %14, align 4
  %19 = getelementptr inbounds [1024 x i8], ptr %4, i64 0, i64 0
  %20 = load ptr, ptr %3, align 8
  %21 = call i32 (ptr, i64, ptr, ...) @pg_snprintf(ptr noundef %19, i64 noundef 1024, ptr noundef @.str.1, ptr noundef %20)
  %22 = getelementptr inbounds [1024 x i8], ptr %4, i64 0, i64 0
  %23 = call i32 (ptr, i32, ...) @open(ptr noundef %22, i32 noundef 0, i32 noundef 0)
  store i32 %23, ptr %5, align 4
  %24 = icmp slt i32 %23, 0
  br i1 %24, label %25, label %36

25:                                               ; preds = %1
  %26 = call ptr @__errno_location() #17
  %27 = load i32, ptr %26, align 4
  %28 = icmp eq i32 %27, 2
  br i1 %28, label %29, label %31

29:                                               ; preds = %25
  %30 = getelementptr inbounds [1024 x i8], ptr %4, i64 0, i64 0
  call void (i32, i32, ptr, ...) @pg_log_generic(i32 noundef 3, i32 noundef 0, ptr noundef @.str.2, ptr noundef %30)
  store ptr null, ptr %2, align 8
  store i32 1, ptr %15, align 4
  br label %204

31:                                               ; preds = %25
  br label %32

32:                                               ; preds = %31
  %33 = getelementptr inbounds [1024 x i8], ptr %4, i64 0, i64 0
  call void (i32, i32, ptr, ...) @pg_log_generic(i32 noundef 4, i32 noundef 0, ptr noundef @.str.3, ptr noundef %33)
  call void @exit(i32 noundef 1) #15
  unreachable

34:                                               ; No predecessors!
  br label %35

35:                                               ; preds = %34
  br label %36

36:                                               ; preds = %35, %1
  %37 = load i32, ptr %5, align 4
  %38 = call i32 @fstat(i32 noundef %37, ptr noundef %6) #14
  %39 = icmp ne i32 %38, 0
  br i1 %39, label %40, label %45

40:                                               ; preds = %36
  br label %41

41:                                               ; preds = %40
  %42 = getelementptr inbounds [1024 x i8], ptr %4, i64 0, i64 0
  call void (i32, i32, ptr, ...) @pg_log_generic(i32 noundef 4, i32 noundef 0, ptr noundef @.str.4, ptr noundef %42)
  call void @exit(i32 noundef 1) #15
  unreachable

43:                                               ; No predecessors!
  br label %44

44:                                               ; preds = %43
  br label %45

45:                                               ; preds = %44, %36
  %46 = getelementptr inbounds nuw %struct.stat, ptr %6, i32 0, i32 8
  %47 = load i64, ptr %46, align 8
  %48 = sdiv i64 %47, 100
  store i64 %48, ptr %7, align 8
  %49 = load i64, ptr %7, align 8
  %50 = icmp sgt i64 %49, 256
  br i1 %50, label %51, label %53

51:                                               ; preds = %45
  %52 = load i64, ptr %7, align 8
  br label %54

53:                                               ; preds = %45
  br label %54

54:                                               ; preds = %53, %51
  %55 = phi i64 [ %52, %51 ], [ 256, %53 ]
  %56 = icmp slt i64 4294967295, %55
  br i1 %56, label %57, label %58

57:                                               ; preds = %54
  br label %66

58:                                               ; preds = %54
  %59 = load i64, ptr %7, align 8
  %60 = icmp sgt i64 %59, 256
  br i1 %60, label %61, label %63

61:                                               ; preds = %58
  %62 = load i64, ptr %7, align 8
  br label %64

63:                                               ; preds = %58
  br label %64

64:                                               ; preds = %63, %61
  %65 = phi i64 [ %62, %61 ], [ 256, %63 ]
  br label %66

66:                                               ; preds = %64, %57
  %67 = phi i64 [ 4294967295, %57 ], [ %65, %64 ]
  %68 = trunc i64 %67 to i32
  store i32 %68, ptr %8, align 4
  %69 = load i32, ptr %8, align 4
  %70 = call ptr @manifest_files_create(i32 noundef %69, ptr noundef null)
  store ptr %70, ptr %9, align 8
  %71 = call ptr @pg_malloc0(i64 noundef 32)
  store ptr %71, ptr %13, align 8
  %72 = load ptr, ptr %9, align 8
  %73 = load ptr, ptr %13, align 8
  %74 = getelementptr inbounds nuw %struct.manifest_data, ptr %73, i32 0, i32 1
  store ptr %72, ptr %74, align 8
  %75 = load ptr, ptr %13, align 8
  %76 = getelementptr inbounds nuw %struct.JsonManifestParseContext, ptr %12, i32 0, i32 0
  store ptr %75, ptr %76, align 8
  %77 = getelementptr inbounds nuw %struct.JsonManifestParseContext, ptr %12, i32 0, i32 1
  store ptr @combinebackup_version_cb, ptr %77, align 8
  %78 = getelementptr inbounds nuw %struct.JsonManifestParseContext, ptr %12, i32 0, i32 2
  store ptr @combinebackup_system_identifier_cb, ptr %78, align 8
  %79 = getelementptr inbounds nuw %struct.JsonManifestParseContext, ptr %12, i32 0, i32 3
  store ptr @combinebackup_per_file_cb, ptr %79, align 8
  %80 = getelementptr inbounds nuw %struct.JsonManifestParseContext, ptr %12, i32 0, i32 4
  store ptr @combinebackup_per_wal_range_cb, ptr %80, align 8
  %81 = getelementptr inbounds nuw %struct.JsonManifestParseContext, ptr %12, i32 0, i32 5
  store ptr @report_manifest_error, ptr %81, align 8
  %82 = getelementptr inbounds nuw %struct.stat, ptr %6, i32 0, i32 8
  %83 = load i64, ptr %82, align 8
  %84 = load i32, ptr %14, align 4
  %85 = sext i32 %84 to i64
  %86 = icmp sle i64 %83, %85
  br i1 %86, label %87, label %125

87:                                               ; preds = %66
  %88 = getelementptr inbounds nuw %struct.stat, ptr %6, i32 0, i32 8
  %89 = load i64, ptr %88, align 8
  %90 = call ptr @pg_malloc(i64 noundef %89)
  store ptr %90, ptr %10, align 8
  %91 = load i32, ptr %5, align 4
  %92 = load ptr, ptr %10, align 8
  %93 = getelementptr inbounds nuw %struct.stat, ptr %6, i32 0, i32 8
  %94 = load i64, ptr %93, align 8
  %95 = call i64 @read(i32 noundef %91, ptr noundef %92, i64 noundef %94)
  %96 = trunc i64 %95 to i32
  store i32 %96, ptr %11, align 4
  %97 = load i32, ptr %11, align 4
  %98 = sext i32 %97 to i64
  %99 = getelementptr inbounds nuw %struct.stat, ptr %6, i32 0, i32 8
  %100 = load i64, ptr %99, align 8
  %101 = icmp ne i64 %98, %100
  br i1 %101, label %102, label %119

102:                                              ; preds = %87
  %103 = load i32, ptr %11, align 4
  %104 = icmp slt i32 %103, 0
  br i1 %104, label %105, label %110

105:                                              ; preds = %102
  br label %106

106:                                              ; preds = %105
  %107 = getelementptr inbounds [1024 x i8], ptr %4, i64 0, i64 0
  call void (i32, i32, ptr, ...) @pg_log_generic(i32 noundef 4, i32 noundef 0, ptr noundef @.str.5, ptr noundef %107)
  call void @exit(i32 noundef 1) #15
  unreachable

108:                                              ; No predecessors!
  br label %109

109:                                              ; preds = %108
  br label %118

110:                                              ; preds = %102
  br label %111

111:                                              ; preds = %110
  %112 = getelementptr inbounds [1024 x i8], ptr %4, i64 0, i64 0
  %113 = load i32, ptr %11, align 4
  %114 = getelementptr inbounds nuw %struct.stat, ptr %6, i32 0, i32 8
  %115 = load i64, ptr %114, align 8
  call void (i32, i32, ptr, ...) @pg_log_generic(i32 noundef 4, i32 noundef 0, ptr noundef @.str.6, ptr noundef %112, i32 noundef %113, i64 noundef %115)
  call void @exit(i32 noundef 1) #15
  unreachable

116:                                              ; No predecessors!
  br label %117

117:                                              ; preds = %116
  br label %118

118:                                              ; preds = %117, %109
  br label %119

119:                                              ; preds = %118, %87
  %120 = load i32, ptr %5, align 4
  %121 = call i32 @close(i32 noundef %120)
  %122 = load ptr, ptr %10, align 8
  %123 = getelementptr inbounds nuw %struct.stat, ptr %6, i32 0, i32 8
  %124 = load i64, ptr %123, align 8
  call void @json_parse_manifest(ptr noundef %12, ptr noundef %122, i64 noundef %124)
  br label %201

125:                                              ; preds = %66
  call void @llvm.lifetime.start.p0(i64 4, ptr %16) #14
  %126 = getelementptr inbounds nuw %struct.stat, ptr %6, i32 0, i32 8
  %127 = load i64, ptr %126, align 8
  %128 = trunc i64 %127 to i32
  store i32 %128, ptr %16, align 4
  call void @llvm.lifetime.start.p0(i64 8, ptr %17) #14
  %129 = call ptr @json_parse_manifest_incremental_init(ptr noundef %12)
  store ptr %129, ptr %17, align 8
  %130 = load i32, ptr %14, align 4
  %131 = add i32 %130, 1
  %132 = sext i32 %131 to i64
  %133 = call ptr @pg_malloc(i64 noundef %132)
  store ptr %133, ptr %10, align 8
  br label %134

134:                                              ; preds = %187, %125
  %135 = load i32, ptr %16, align 4
  %136 = icmp sgt i32 %135, 0
  br i1 %136, label %137, label %197

137:                                              ; preds = %134
  call void @llvm.lifetime.start.p0(i64 4, ptr %18) #14
  %138 = load i32, ptr %14, align 4
  store i32 %138, ptr %18, align 4
  %139 = load i32, ptr %16, align 4
  %140 = load i32, ptr %14, align 4
  %141 = icmp slt i32 %139, %140
  br i1 %141, label %142, label %144

142:                                              ; preds = %137
  %143 = load i32, ptr %16, align 4
  store i32 %143, ptr %18, align 4
  br label %153

144:                                              ; preds = %137
  %145 = load i32, ptr %16, align 4
  %146 = load i32, ptr %14, align 4
  %147 = mul i32 2, %146
  %148 = icmp slt i32 %145, %147
  br i1 %148, label %149, label %152

149:                                              ; preds = %144
  %150 = load i32, ptr %16, align 4
  %151 = sdiv i32 %150, 2
  store i32 %151, ptr %18, align 4
  br label %152

152:                                              ; preds = %149, %144
  br label %153

153:                                              ; preds = %152, %142
  %154 = load i32, ptr %5, align 4
  %155 = load ptr, ptr %10, align 8
  %156 = load i32, ptr %18, align 4
  %157 = sext i32 %156 to i64
  %158 = call i64 @read(i32 noundef %154, ptr noundef %155, i64 noundef %157)
  %159 = trunc i64 %158 to i32
  store i32 %159, ptr %11, align 4
  %160 = load i32, ptr %11, align 4
  %161 = load i32, ptr %18, align 4
  %162 = icmp ne i32 %160, %161
  br i1 %162, label %163, label %187

163:                                              ; preds = %153
  %164 = load i32, ptr %11, align 4
  %165 = icmp slt i32 %164, 0
  br i1 %165, label %166, label %171

166:                                              ; preds = %163
  br label %167

167:                                              ; preds = %166
  %168 = getelementptr inbounds [1024 x i8], ptr %4, i64 0, i64 0
  call void (i32, i32, ptr, ...) @pg_log_generic(i32 noundef 4, i32 noundef 0, ptr noundef @.str.5, ptr noundef %168)
  call void @exit(i32 noundef 1) #15
  unreachable

169:                                              ; No predecessors!
  br label %170

170:                                              ; preds = %169
  br label %186

171:                                              ; preds = %163
  br label %172

172:                                              ; preds = %171
  %173 = getelementptr inbounds [1024 x i8], ptr %4, i64 0, i64 0
  %174 = getelementptr inbounds nuw %struct.stat, ptr %6, i32 0, i32 8
  %175 = load i64, ptr %174, align 8
  %176 = load i32, ptr %11, align 4
  %177 = sext i32 %176 to i64
  %178 = add i64 %175, %177
  %179 = load i32, ptr %16, align 4
  %180 = sext i32 %179 to i64
  %181 = sub i64 %178, %180
  %182 = getelementptr inbounds nuw %struct.stat, ptr %6, i32 0, i32 8
  %183 = load i64, ptr %182, align 8
  call void (i32, i32, ptr, ...) @pg_log_generic(i32 noundef 4, i32 noundef 0, ptr noundef @.str.7, ptr noundef %173, i64 noundef %181, i64 noundef %183)
  call void @exit(i32 noundef 1) #15
  unreachable

184:                                              ; No predecessors!
  br label %185

185:                                              ; preds = %184
  br label %186

186:                                              ; preds = %185, %170
  br label %187

187:                                              ; preds = %186, %153
  %188 = load i32, ptr %11, align 4
  %189 = load i32, ptr %16, align 4
  %190 = sub i32 %189, %188
  store i32 %190, ptr %16, align 4
  %191 = load ptr, ptr %17, align 8
  %192 = load ptr, ptr %10, align 8
  %193 = load i32, ptr %11, align 4
  %194 = sext i32 %193 to i64
  %195 = load i32, ptr %16, align 4
  %196 = icmp eq i32 %195, 0
  call void @json_parse_manifest_incremental_chunk(ptr noundef %191, ptr noundef %192, i64 noundef %194, i1 noundef zeroext %196)
  call void @llvm.lifetime.end.p0(i64 4, ptr %18) #14
  br label %134, !llvm.loop !15

197:                                              ; preds = %134
  %198 = load ptr, ptr %17, align 8
  call void @json_parse_manifest_incremental_shutdown(ptr noundef %198)
  %199 = load i32, ptr %5, align 4
  %200 = call i32 @close(i32 noundef %199)
  call void @llvm.lifetime.end.p0(i64 8, ptr %17) #14
  call void @llvm.lifetime.end.p0(i64 4, ptr %16) #14
  br label %201

201:                                              ; preds = %197, %119
  %202 = load ptr, ptr %10, align 8
  call void @pfree(ptr noundef %202)
  %203 = load ptr, ptr %13, align 8
  store ptr %203, ptr %2, align 8
  store i32 1, ptr %15, align 4
  br label %204

204:                                              ; preds = %201, %29
  call void @llvm.lifetime.end.p0(i64 4, ptr %14) #14
  call void @llvm.lifetime.end.p0(i64 8, ptr %13) #14
  call void @llvm.lifetime.end.p0(i64 48, ptr %12) #14
  call void @llvm.lifetime.end.p0(i64 4, ptr %11) #14
  call void @llvm.lifetime.end.p0(i64 8, ptr %10) #14
  call void @llvm.lifetime.end.p0(i64 8, ptr %9) #14
  call void @llvm.lifetime.end.p0(i64 4, ptr %8) #14
  call void @llvm.lifetime.end.p0(i64 8, ptr %7) #14
  call void @llvm.lifetime.end.p0(i64 144, ptr %6) #14
  call void @llvm.lifetime.end.p0(i64 4, ptr %5) #14
  call void @llvm.lifetime.end.p0(i64 1024, ptr %4) #14
  %205 = load ptr, ptr %2, align 8
  ret ptr %205
}