; Function Attrs: nounwind uwtable
define dso_local ptr @load_backup_manifest(ptr noundef %0) local_unnamed_addr #0 {
  %2 = alloca [1024 x i8], align 16
  %3 = alloca %struct.stat, align 8
  %4 = alloca %struct.JsonManifestParseContext, align 8
  call void @llvm.lifetime.start.p0(i64 1024, ptr nonnull %2) #22
  call void @llvm.lifetime.start.p0(i64 144, ptr nonnull %3) #22
  call void @llvm.lifetime.start.p0(i64 48, ptr nonnull %4) #22
  %5 = call i32 (ptr, i64, ptr, ...) @pg_snprintf(ptr noundef nonnull %2, i64 noundef 1024, ptr noundef nonnull @.str.1, ptr noundef %0) #22
  %6 = call i32 (ptr, i32, ...) @open(ptr noundef nonnull %2, i32 noundef 0, i32 noundef 0) #22
  %7 = icmp slt i32 %6, 0
  br i1 %7, label %8, label %14

8:                                                ; preds = %1
  %9 = tail call ptr @__errno_location() #25
  %10 = load i32, ptr %9, align 4
  %11 = icmp eq i32 %10, 2
  br i1 %11, label %12, label %13

12:                                               ; preds = %8
  call void (i32, i32, ptr, ...) @pg_log_generic(i32 noundef 3, i32 noundef 0, ptr noundef nonnull @.str.2, ptr noundef nonnull %2) #22
  br label %69

13:                                               ; preds = %8
  call void (i32, i32, ptr, ...) @pg_log_generic(i32 noundef 4, i32 noundef 0, ptr noundef nonnull @.str.3, ptr noundef nonnull %2) #22
  call void @exit(i32 noundef 1) #23
  unreachable

14:                                               ; preds = %1
  %15 = call i32 @fstat(i32 noundef %6, ptr noundef nonnull %3) #22
  %.not = icmp eq i32 %15, 0
  br i1 %.not, label %17, label %16

16:                                               ; preds = %14
  call void (i32, i32, ptr, ...) @pg_log_generic(i32 noundef 4, i32 noundef 0, ptr noundef nonnull @.str.4, ptr noundef nonnull %2) #22
  call void @exit(i32 noundef 1) #23
  unreachable

17:                                               ; preds = %14
  %18 = getelementptr inbounds nuw i8, ptr %3, i64 48
  %19 = load i64, ptr %18, align 8
  %20 = sdiv i64 %19, 100
  %21 = call i64 @llvm.smax.i64(i64 %20, i64 256)
  %22 = call i64 @llvm.umin.i64(i64 %21, i64 4294967295)
  %23 = trunc nuw i64 %22 to i32
  %24 = call ptr @manifest_files_create(i32 noundef %23, ptr noundef null)
  %25 = call ptr @pg_malloc0(i64 noundef 32) #22
  %26 = getelementptr inbounds nuw i8, ptr %25, i64 8
  store ptr %24, ptr %26, align 8
  store ptr %25, ptr %4, align 8
  %27 = getelementptr inbounds nuw i8, ptr %4, i64 8
  store ptr @combinebackup_version_cb, ptr %27, align 8
  %28 = getelementptr inbounds nuw i8, ptr %4, i64 16
  store ptr @combinebackup_system_identifier_cb, ptr %28, align 8
  %29 = getelementptr inbounds nuw i8, ptr %4, i64 24
  store ptr @combinebackup_per_file_cb, ptr %29, align 8
  %30 = getelementptr inbounds nuw i8, ptr %4, i64 32
  store ptr @combinebackup_per_wal_range_cb, ptr %30, align 8
  %31 = getelementptr inbounds nuw i8, ptr %4, i64 40
  store ptr @report_manifest_error, ptr %31, align 8
  %32 = icmp slt i64 %19, 131073
  br i1 %32, label %33, label %44

33:                                               ; preds = %17
  %34 = call ptr @pg_malloc(i64 noundef %19) #22
  %35 = call i64 @read(i32 noundef %6, ptr noundef %34, i64 noundef %19) #22
  %36 = trunc i64 %35 to i32
  %sext = shl i64 %35, 32
  %37 = ashr exact i64 %sext, 32
  %.not54 = icmp eq i64 %37, %19
  br i1 %.not54, label %42, label %38

38:                                               ; preds = %33
  %39 = icmp slt i32 %36, 0
  br i1 %39, label %40, label %41

40:                                               ; preds = %38
  call void (i32, i32, ptr, ...) @pg_log_generic(i32 noundef 4, i32 noundef 0, ptr noundef nonnull @.str.5, ptr noundef nonnull %2) #22
  call void @exit(i32 noundef 1) #23
  unreachable

41:                                               ; preds = %38
  call void (i32, i32, ptr, ...) @pg_log_generic(i32 noundef 4, i32 noundef 0, ptr noundef nonnull @.str.6, ptr noundef nonnull %2, i32 noundef %36, i64 noundef %19) #22
  call void @exit(i32 noundef 1) #23
  unreachable

42:                                               ; preds = %33
  %43 = call i32 @close(i32 noundef %6) #22
  call void @json_parse_manifest(ptr noundef nonnull %4, ptr noundef %34, i64 noundef %19) #22
  br label %68

44:                                               ; preds = %17
  %45 = trunc i64 %19 to i32
  %46 = call ptr @json_parse_manifest_incremental_init(ptr noundef nonnull %4) #22
  %47 = call ptr @pg_malloc(i64 noundef 131073) #22
  %48 = icmp sgt i32 %45, 0
  br i1 %48, label %.lr.ph, label %._crit_edge

.lr.ph:                                           ; preds = %44, %62
  %.04657 = phi i32 [ %63, %62 ], [ %45, %44 ]
  %49 = icmp samesign ult i32 %.04657, 131072
  %50 = call i32 @llvm.umin.i32(i32 %.04657, i32 262144)
  %spec.select = lshr i32 %50, 1
  %.0 = select i1 %49, i32 %.04657, i32 %spec.select
  %51 = zext nneg i32 %.0 to i64
  %52 = call i64 @read(i32 noundef %6, ptr noundef %47, i64 noundef %51) #22
  %53 = trunc i64 %52 to i32
  %.not53 = icmp eq i32 %.0, %53
  br i1 %.not53, label %62, label %54

54:                                               ; preds = %.lr.ph
  %55 = icmp slt i32 %53, 0
  br i1 %55, label %56, label %57

56:                                               ; preds = %54
  call void (i32, i32, ptr, ...) @pg_log_generic(i32 noundef 4, i32 noundef 0, ptr noundef nonnull @.str.5, ptr noundef nonnull %2) #22
  call void @exit(i32 noundef 1) #23
  unreachable

57:                                               ; preds = %54
  %58 = and i64 %52, 2147483647
  %59 = zext nneg i32 %.04657 to i64
  %60 = sub nsw i64 %19, %59
  %61 = add i64 %60, %58
  call void (i32, i32, ptr, ...) @pg_log_generic(i32 noundef 4, i32 noundef 0, ptr noundef nonnull @.str.7, ptr noundef nonnull %2, i64 noundef %61, i64 noundef %19) #22
  call void @exit(i32 noundef 1) #23
  unreachable

62:                                               ; preds = %.lr.ph
  %63 = sub nsw i32 %.04657, %.0
  %64 = and i64 %52, 4294967295
  %65 = icmp eq i32 %63, 0
  call void @json_parse_manifest_incremental_chunk(ptr noundef %46, ptr noundef %47, i64 noundef %64, i1 noundef zeroext %65) #22
  %66 = icmp sgt i32 %63, 0
  br i1 %66, label %.lr.ph, label %._crit_edge, !llvm.loop !16

._crit_edge:                                      ; preds = %62, %44
  call void @json_parse_manifest_incremental_shutdown(ptr noundef %46) #22
  %67 = call i32 @close(i32 noundef %6) #22
  br label %68

68:                                               ; preds = %._crit_edge, %42
  %.047 = phi ptr [ %34, %42 ], [ %47, %._crit_edge ]
  call void @pfree(ptr noundef %.047) #22
  br label %69

69:                                               ; preds = %68, %12
  %.045 = phi ptr [ null, %12 ], [ %25, %68 ]
  call void @llvm.lifetime.end.p0(i64 48, ptr nonnull %4) #22
  call void @llvm.lifetime.end.p0(i64 144, ptr nonnull %3) #22
  call void @llvm.lifetime.end.p0(i64 1024, ptr nonnull %2) #22
  ret ptr %.045
}